-----BEGIN RSA PRIVATE KEY-----
MIIEpAIBAAKCAQEApbMnjBZZ/VaiEN/LqJ8Kitphk3M4a4U+WIg1hFgDH/SsGqPo
lr6F1a/U0xjqBeU+uPlJcIKb5owQr+0tFpaP4GPosFloXiYfBQLrkVdmToanR7OA
DR0YiNDMGigAWTVp1BYlfhWl02KN2+7gZ/lcMgAD9BkCprq8/2KHr56tkorEieyd
4cEoR0jFoPHaATPoniyCXCyRkPFEDDKVOsg5dVgkg3574wbms5PaaWn1JKZTqWq9
kCZExtO8V2ihGFWzubSNWvzlKvufJ/9xf7yGaOGFPjC0qib5KHf8KihbDgBxIJx7
3pTu1TJKOyEeeUVQ5cBhSw2tXWCDz7i6lH7n3wIDAQABAoIBAFAOCWpOFjYml/BN
H4kdJavGLGRfw393BZMiY7DIEOJshIXucN37uI9v/wPqQo6Mnkwh7JBWGdo+C4Xj
sef64BJKUs54s8rg4hW6vnMe5cfEmKc0mwY663KWZjWw49I10yZreLu827wQHneG
ppa1TAzAIyjYuIYzLEK6qNF5eWSVrbCkZjyZjGbDCJqnWOtqArvrL0PRRRus/z4F
nhPoIPX2Urx1+4wKNcicDl4f/v5ZahtQkJ1y1fOs33UKHaq581sxoTDU3zEct6tG
YNDkumLWzBdPklGK6EYvCC0E2vYRQtDa4i9D+bmhD6ZqS6ZmzB0gK7s/bKckfDO0
T+qsgIkCgYEAzxkgYPTRz1RVpGX9i4OMSeLOA/Q+6wtJuiKE6BbRoVeWFzrgJNSH
lB8o6cpUX1rR7b0ytbSZue195X/ALUo/bzblC85YpuI54UYQxtIFjjFgA+LtndN8
ui/DYwdGooZM5hzdQmTDwgyMuo/aaBDGxlU0ilbbGosDYmVPDgEHJS0CgYEAzNOK
fZUblM8WrV9nDfDihOaDGhG8gGB2QJi3A4zf3B6jEnGYp/j8GA+YoyoMgzrt85vp
aUqmxHGD7nvtabdOXqpOfxBCWSCEjAmlah/jhkribjv3mefqufx8oUDaZVWk92lI
XUzIEjYKXVO7Dqj2Lly7/OTkH8gcV2oyy5MZwLsCgYEAi16Vc6pOKADRQbmBT4pP
tslzayXL0dHe4+ynFKmGmdWfpDJy9VYxh3UQy4TmEuXDsQJKRg4sBfvVZcT7R39Y
ATgoHDHZZzWHThsg3ywnoPGJdBQbZMMWhRXvn40d8/H9fj6eiDfXpZdcfZChorbn
jkF5AkBBYzN6K5WSBhKbBGECgYAVw9TPi2ym32qVebHFtXcckDIWLxRMv/NQ4elw
oyOWjFrfttp13utK0z1w+SLjPvvSCxs+aQRXk4hlax3LQgM94/L7ZYrnVaFAEDZX
lJPkzUhKVmz1GcPDh6TmrbGHWxZwg+uAnowUA1IOoLsbz7B5NLl1Ig1royP/1fUX
1MXDyQKBgQCCTI2dVbQ57iIjj5hQd2JpDSx94REdnkAj/whVBHH67pbgU1NtXcYG
sUOeJlLTVwciFI1p7plcBR/2xfLWrRJSzPOvWbvFLikLiswMVly2ivXC6JhUb9hU
gdODA2qL6xL+5i02GuU1fPCS2JTY6e5WvypaO3fDNKLW3rtaQtLGXA==
-----END RSA PRIVATE KEY-----
Certificate:
    Data:
        Version: 3 (0x2)
        Serial Number:
            e0:b3:67:3b:85:89:e2:38:19:c2:c4:3c:17:cd:ad:14
    Signature Algorithm: sha256WithRSAEncryption
        Issuer: CN=mongoadmin
        Validity
            Not Before: Mar  1 13:37:08 2019 GMT
            Not After : Feb 13 13:37:08 2022 GMT
        Subject: CN=kmipclient
        Subject Public Key Info:
            Public Key Algorithm: rsaEncryption
                Public-Key: (2048 bit)
                Modulus:
                    00:a5:b3:27:8c:16:59:fd:56:a2:10:df:cb:a8:9f:
                    0a:8a:da:61:93:73:38:6b:85:3e:58:88:35:84:58:
                    03:1f:f4:ac:1a:a3:e8:96:be:85:d5:af:d4:d3:18:
                    ea:05:e5:3e:b8:f9:49:70:82:9b:e6:8c:10:af:ed:
                    2d:16:96:8f:e0:63:e8:b0:59:68:5e:26:1f:05:02:
                    eb:91:57:66:4e:86:a7:47:b3:80:0d:1d:18:88:d0:
                    cc:1a:28:00:59:35:69:d4:16:25:7e:15:a5:d3:62:
                    8d:db:ee:e0:67:f9:5c:32:00:03:f4:19:02:a6:ba:
                    bc:ff:62:87:af:9e:ad:92:8a:c4:89:ec:9d:e1:c1:
                    28:47:48:c5:a0:f1:da:01:33:e8:9e:2c:82:5c:2c:
                    91:90:f1:44:0c:32:95:3a:c8:39:75:58:24:83:7e:
                    7b:e3:06:e6:b3:93:da:69:69:f5:24:a6:53:a9:6a:
                    bd:90:26:44:c6:d3:bc:57:68:a1:18:55:b3:b9:b4:
                    8d:5a:fc:e5:2a:fb:9f:27:ff:71:7f:bc:86:68:e1:
                    85:3e:30:b4:aa:26:f9:28:77:fc:2a:28:5b:0e:00:
                    71:20:9c:7b:de:94:ee:d5:32:4a:3b:21:1e:79:45:
                    50:e5:c0:61:4b:0d:ad:5d:60:83:cf:b8:ba:94:7e:
                    e7:df
                Exponent: 65537 (0x10001)
        X509v3 extensions:
            X509v3 Basic Constraints: 
                CA:FALSE
            X509v3 Subject Key Identifier: 
                6C:5C:9E:3B:E0:36:C5:73:30:36:BE:16:64:EC:C7:67:40:CC:74:5D
            X509v3 Authority Key Identifier: 
                keyid:90:B8:CC:DD:80:20:1C:A7:63:8D:89:3C:B8:71:50:AD:3B:B6:A8:58
                DirName:/CN=mongoadmin
                serial:86:C8:79:EA:97:D9:FE:7C

            X509v3 Extended Key Usage: 
                TLS Web Client Authentication
            X509v3 Key Usage: 
                Digital Signature
    Signature Algorithm: sha256WithRSAEncryption
         25:17:92:55:d9:ae:26:ee:1b:a5:52:78:7f:ea:47:84:b0:a9:
         29:08:14:6c:c8:c5:a3:88:c4:35:0a:29:5a:2a:5c:9c:14:a8:
         d3:a3:7a:d8:34:88:09:a0:b7:50:bf:38:b6:f0:e1:fc:8f:fd:
         66:66:5e:50:29:28:55:a3:20:71:00:0a:4a:02:1f:f2:d8:cc:
         86:d6:82:cf:8b:42:73:de:fb:99:da:65:b4:87:4e:6f:77:2b:
         f3:67:be:c7:bf:68:8a:93:78:92:ac:d0:bb:0f:ea:cd:d8:31:
         57:b9:da:e3:1c:cf:a8:34:3b:f5:16:b2:1d:c6:2c:ae:08:84:
         96:39:99:09:fc:de:0d:ad:ba:99:1a:2a:31:8c:4f:b5:cc:45:
         41:51:4a:2d:f4:03:2a:20:87:02:e5:b1:d6:b8:34:b6:86:22:
         3f:f5:4e:e5:87:a0:35:a6:c2:ea:c6:a8:79:9c:bf:7a:21:43:
         f4:49:67:77:b0:d2:25:4b:27:3f:3a:2a:51:b8:f9:86:58:65:
         df:d9:e6:a0:b6:2d:ec:cb:08:f8:a3:a7:a4:e6:92:97:3c:2b:
         a7:46:08:52:e0:80:4f:3d:95:7b:e2:9d:8e:42:ef:b6:3a:6f:
         23:5c:28:e1:58:83:bf:c1:f8:98:ba:e4:99:78:d1:d0:08:dd:
         ee:f0:c8:4f
-----BEGIN CERTIFICATE-----
MIIDTDCCAjSgAwIBAgIRAOCzZzuFieI4GcLEPBfNrRQwDQYJKoZIhvcNAQELBQAw
FTETMBEGA1UEAwwKbW9uZ29hZG1pbjAeFw0xOTAzMDExMzM3MDhaFw0yMjAyMTMx
MzM3MDhaMBUxEzARBgNVBAMMCmttaXBjbGllbnQwggEiMA0GCSqGSIb3DQEBAQUA
A4IBDwAwggEKAoIBAQClsyeMFln9VqIQ38uonwqK2mGTczhrhT5YiDWEWAMf9Kwa
o+iWvoXVr9TTGOoF5T64+UlwgpvmjBCv7S0Wlo/gY+iwWWheJh8FAuuRV2ZOhqdH
s4ANHRiI0MwaKABZNWnUFiV+FaXTYo3b7uBn+VwyAAP0GQKmurz/Yoevnq2SisSJ
7J3hwShHSMWg8doBM+ieLIJcLJGQ8UQMMpU6yDl1WCSDfnvjBuazk9ppafUkplOp
ar2QJkTG07xXaKEYVbO5tI1a/OUq+58n/3F/vIZo4YU+MLSqJvkod/wqKFsOAHEg
nHvelO7VMko7IR55RVDlwGFLDa1dYIPPuLqUfuffAgMBAAGjgZYwgZMwCQYDVR0T
BAIwADAdBgNVHQ4EFgQUbFyeO+A2xXMwNr4WZOzHZ0DMdF0wRQYDVR0jBD4wPIAU
kLjM3YAgHKdjjYk8uHFQrTu2qFihGaQXMBUxEzARBgNVBAMMCm1vbmdvYWRtaW6C
CQCGyHnql9n+fDATBgNVHSUEDDAKBggrBgEFBQcDAjALBgNVHQ8EBAMCB4AwDQYJ
KoZIhvcNAQELBQADggEBACUXklXZribuG6VSeH/qR4SwqSkIFGzIxaOIxDUKKVoq
XJwUqNOjetg0iAmgt1C/OLbw4fyP/WZmXlApKFWjIHEACkoCH/LYzIbWgs+LQnPe
+5naZbSHTm93K/Nnvse/aIqTeJKs0LsP6s3YMVe52uMcz6g0O/UWsh3GLK4IhJY5
mQn83g2tupkaKjGMT7XMRUFRSi30AyoghwLlsda4NLaGIj/1TuWHoDWmwurGqHmc
v3ohQ/RJZ3ew0iVLJz86KlG4+YZYZd/Z5qC2LezLCPijp6Tmkpc8K6dGCFLggE89
lXvinY5C77Y6byNcKOFYg7/B+Ji65Jl40dAI3e7wyE8=
-----END CERTIFICATE-----
